; Function Attrs: mustprogress uwtable
define dso_local noundef zeroext i1 @_ZN3tev11ImageViewer9setFilterERKNSt3__112basic_stringIcNS1_11char_traitsIcEENS1_9allocatorIcEEEE(ptr nocapture noundef nonnull align 16 dereferenceable(972) %0, ptr noundef nonnull align 8 dereferenceable(24) %1) local_unnamed_addr #7 align 2 {
  %3 = getelementptr inbounds i8, ptr %0, i64 744
  %4 = load ptr, ptr %3, align 8
  %5 = getelementptr inbounds i8, ptr %4, i64 136
  %6 = tail call noundef nonnull align 8 dereferenceable(24) ptr @_ZNSt3__112basic_stringIcNS_11char_traitsIcEENS_9allocatorIcEEEaSERKS5_(ptr noundef nonnull align 8 dereferenceable(24) %5, ptr noundef nonnull align 8 dereferenceable(24) %1)
  %7 = getelementptr inbounds i8, ptr %0, i64 520
  store i8 1, ptr %7, align 8
  ret i1 true
}